target datalayout = "e-m:e-p270:32:32-p271:32:32-p272:64:64-i64:64-f80:128-n8:16:32:64-S128"
target triple = "x86_64-pc-linux-gnu"

%struct.student = type { [20 x i8], i32, i32, i8, i8, i32, i32 }

@.str = private unnamed_addr constant [3 x i8] c"%d\00", align 1
@.str.1 = private unnamed_addr constant [18 x i8] c"%s %d %d %c %c %d\00", align 1
@.str.2 = private unnamed_addr constant [4 x i8] c"%s\0A\00", align 1
@.str.3 = private unnamed_addr constant [4 x i8] c"%d\0A\00", align 1

; Function Attrs: noinline nounwind uwtable
define dso_local void @main() #0 {
  %1 = alloca [100 x %struct.student], align 16
  %2 = alloca i32, align 4
  %3 = alloca i32, align 4
  %4 = alloca i32, align 4
  %5 = alloca i32, align 4
  %6 = call i32 (i8*, ...) @__isoc99_scanf(i8* getelementptr inbounds ([3 x i8], [3 x i8]* @.str, i64 0, i64 0), i32* %2)
  store i32 0, i32* %3, align 4
  br label %7

7:                                                ; preds = %38, %0
  %8 = load i32, i32* %3, align 4
  %9 = load i32, i32* %2, align 4
  %10 = icmp slt i32 %8, %9
  br i1 %10, label %11, label %41

11:                                               ; preds = %7
  %12 = load i32, i32* %3, align 4
  %13 = sext i32 %12 to i64
  %14 = getelementptr inbounds [100 x %struct.student], [100 x %struct.student]* %1, i64 0, i64 %13
  %15 = getelementptr inbounds %struct.student, %struct.student* %14, i32 0, i32 0
  %16 = getelementptr inbounds [20 x i8], [20 x i8]* %15, i64 0, i64 0
  %17 = load i32, i32* %3, align 4
  %18 = sext i32 %17 to i64
  %19 = getelementptr inbounds [100 x %struct.student], [100 x %struct.student]* %1, i64 0, i64 %18
  %20 = getelementptr inbounds %struct.student, %struct.student* %19, i32 0, i32 1
  %21 = load i32, i32* %3, align 4
  %22 = sext i32 %21 to i64
  %23 = getelementptr inbounds [100 x %struct.student], [100 x %struct.student]* %1, i64 0, i64 %22
  %24 = getelementptr inbounds %struct.student, %struct.student* %23, i32 0, i32 2
  %25 = load i32, i32* %3, align 4
  %26 = sext i32 %25 to i64
  %27 = getelementptr inbounds [100 x %struct.student], [100 x %struct.student]* %1, i64 0, i64 %26
  %28 = getelementptr inbounds %struct.student, %struct.student* %27, i32 0, i32 3
  %29 = load i32, i32* %3, align 4
  %30 = sext i32 %29 to i64
  %31 = getelementptr inbounds [100 x %struct.student], [100 x %struct.student]* %1, i64 0, i64 %30
  %32 = getelementptr inbounds %struct.student, %struct.student* %31, i32 0, i32 4
  %33 = load i32, i32* %3, align 4
  %34 = sext i32 %33 to i64
  %35 = getelementptr inbounds [100 x %struct.student], [100 x %struct.student]* %1, i64 0, i64 %34
  %36 = getelementptr inbounds %struct.student, %struct.student* %35, i32 0, i32 5
  %37 = call i32 (i8*, ...) @__isoc99_scanf(i8* getelementptr inbounds ([18 x i8], [18 x i8]* @.str.1, i64 0, i64 0), i8* %16, i32* %20, i32* %24, i8* %28, i8* %32, i32* %36)
  br label %38

38:                                               ; preds = %11
  %39 = load i32, i32* %3, align 4
  %40 = add nsw i32 %39, 1
  store i32 %40, i32* %3, align 4
  br label %7

41:                                               ; preds = %7
  store i32 0, i32* %3, align 4
  br label %42

42:                                               ; preds = %151, %41
  %43 = load i32, i32* %3, align 4
  %44 = load i32, i32* %2, align 4
  %45 = icmp slt i32 %43, %44
  br i1 %45, label %46, label %154

46:                                               ; preds = %42
  %47 = load i32, i32* %3, align 4
  %48 = sext i32 %47 to i64
  %49 = getelementptr inbounds [100 x %struct.student], [100 x %struct.student]* %1, i64 0, i64 %48
  %50 = getelementptr inbounds %struct.student, %struct.student* %49, i32 0, i32 6
  store i32 0, i32* %50, align 4
  %51 = load i32, i32* %3, align 4
  %52 = sext i32 %51 to i64
  %53 = getelementptr inbounds [100 x %struct.student], [100 x %struct.student]* %1, i64 0, i64 %52
  %54 = getelementptr inbounds %struct.student, %struct.student* %53, i32 0, i32 1
  %55 = load i32, i32* %54, align 4
  %56 = icmp sgt i32 %55, 80
  br i1 %56, label %57, label %71

57:                                               ; preds = %46
  %58 = load i32, i32* %3, align 4
  %59 = sext i32 %58 to i64
  %60 = getelementptr inbounds [100 x %struct.student], [100 x %struct.student]* %1, i64 0, i64 %59
  %61 = getelementptr inbounds %struct.student, %struct.student* %60, i32 0, i32 5
  %62 = load i32, i32* %61, align 8
  %63 = icmp sge i32 %62, 1
  br i1 %63, label %64, label %71

64:                                               ; preds = %57
  %65 = load i32, i32* %3, align 4
  %66 = sext i32 %65 to i64
  %67 = getelementptr inbounds [100 x %struct.student], [100 x %struct.student]* %1, i64 0, i64 %66
  %68 = getelementptr inbounds %struct.student, %struct.student* %67, i32 0, i32 6
  %69 = load i32, i32* %68, align 4
  %70 = add nsw i32 %69, 8000
  store i32 %70, i32* %68, align 4
  br label %71

71:                                               ; preds = %64, %57, %46
  %72 = load i32, i32* %3, align 4
  %73 = sext i32 %72 to i64
  %74 = getelementptr inbounds [100 x %struct.student], [100 x %struct.student]* %1, i64 0, i64 %73
  %75 = getelementptr inbounds %struct.student, %struct.student* %74, i32 0, i32 1
  %76 = load i32, i32* %75, align 4
  %77 = icmp sgt i32 %76, 85
  br i1 %77, label %78, label %92

78:                                               ; preds = %71
  %79 = load i32, i32* %3, align 4
  %80 = sext i32 %79 to i64
  %81 = getelementptr inbounds [100 x %struct.student], [100 x %struct.student]* %1, i64 0, i64 %80
  %82 = getelementptr inbounds %struct.student, %struct.student* %81, i32 0, i32 2
  %83 = load i32, i32* %82, align 8
  %84 = icmp sgt i32 %83, 80
  br i1 %84, label %85, label %92

85:                                               ; preds = %78
  %86 = load i32, i32* %3, align 4
  %87 = sext i32 %86 to i64
  %88 = getelementptr inbounds [100 x %struct.student], [100 x %struct.student]* %1, i64 0, i64 %87
  %89 = getelementptr inbounds %struct.student, %struct.student* %88, i32 0, i32 6
  %90 = load i32, i32* %89, align 4
  %91 = add nsw i32 %90, 4000
  store i32 %91, i32* %89, align 4
  br label %92

92:                                               ; preds = %85, %78, %71
  %93 = load i32, i32* %3, align 4
  %94 = sext i32 %93 to i64
  %95 = getelementptr inbounds [100 x %struct.student], [100 x %struct.student]* %1, i64 0, i64 %94
  %96 = getelementptr inbounds %struct.student, %struct.student* %95, i32 0, i32 1
  %97 = load i32, i32* %96, align 4
  %98 = icmp sgt i32 %97, 90
  br i1 %98, label %99, label %106

99:                                               ; preds = %92
  %100 = load i32, i32* %3, align 4
  %101 = sext i32 %100 to i64
  %102 = getelementptr inbounds [100 x %struct.student], [100 x %struct.student]* %1, i64 0, i64 %101
  %103 = getelementptr inbounds %struct.student, %struct.student* %102, i32 0, i32 6
  %104 = load i32, i32* %103, align 4
  %105 = add nsw i32 %104, 2000
  store i32 %105, i32* %103, align 4
  br label %106

106:                                              ; preds = %99, %92
  %107 = load i32, i32* %3, align 4
  %108 = sext i32 %107 to i64
  %109 = getelementptr inbounds [100 x %struct.student], [100 x %struct.student]* %1, i64 0, i64 %108
  %110 = getelementptr inbounds %struct.student, %struct.student* %109, i32 0, i32 1
  %111 = load i32, i32* %110, align 4
  %112 = icmp sgt i32 %111, 85
  br i1 %112, label %113, label %128

113:                                              ; preds = %106
  %114 = load i32, i32* %3, align 4
  %115 = sext i32 %114 to i64
  %116 = getelementptr inbounds [100 x %struct.student], [100 x %struct.student]* %1, i64 0, i64 %115
  %117 = getelementptr inbounds %struct.student, %struct.student* %116, i32 0, i32 4
  %118 = load i8, i8* %117, align 1
  %119 = sext i8 %118 to i32
  %120 = icmp eq i32 %119, 89
  br i1 %120, label %121, label %128

121:                                              ; preds = %113
  %122 = load i32, i32* %3, align 4
  %123 = sext i32 %122 to i64
  %124 = getelementptr inbounds [100 x %struct.student], [100 x %struct.student]* %1, i64 0, i64 %123
  %125 = getelementptr inbounds %struct.student, %struct.student* %124, i32 0, i32 6
  %126 = load i32, i32* %125, align 4
  %127 = add nsw i32 %126, 1000
  store i32 %127, i32* %125, align 4
  br label %128

128:                                              ; preds = %121, %113, %106
  %129 = load i32, i32* %3, align 4
  %130 = sext i32 %129 to i64
  %131 = getelementptr inbounds [100 x %struct.student], [100 x %struct.student]* %1, i64 0, i64 %130
  %132 = getelementptr inbounds %struct.student, %struct.student* %131, i32 0, i32 2
  %133 = load i32, i32* %132, align 8
  %134 = icmp sgt i32 %133, 80
  br i1 %134, label %135, label %150

135:                                              ; preds = %128
  %136 = load i32, i32* %3, align 4
  %137 = sext i32 %136 to i64
  %138 = getelementptr inbounds [100 x %struct.student], [100 x %struct.student]* %1, i64 0, i64 %137
  %139 = getelementptr inbounds %struct.student, %struct.student* %138, i32 0, i32 3
  %140 = load i8, i8* %139, align 4
  %141 = sext i8 %140 to i32
  %142 = icmp eq i32 %141, 89
  br i1 %142, label %143, label %150

143:                                              ; preds = %135
  %144 = load i32, i32* %3, align 4
  %145 = sext i32 %144 to i64
  %146 = getelementptr inbounds [100 x %struct.student], [100 x %struct.student]* %1, i64 0, i64 %145
  %147 = getelementptr inbounds %struct.student, %struct.student* %146, i32 0, i32 6
  %148 = load i32, i32* %147, align 4
  %149 = add nsw i32 %148, 850
  store i32 %149, i32* %147, align 4
  br label %150

150:                                              ; preds = %143, %135, %128
  br label %151

151:                                              ; preds = %150
  %152 = load i32, i32* %3, align 4
  %153 = add nsw i32 %152, 1
  store i32 %153, i32* %3, align 4
  br label %42

154:                                              ; preds = %42
  store i32 0, i32* %5, align 4
  store i32 1, i32* %3, align 4
  br label %155

155:                                              ; preds = %174, %154
  %156 = load i32, i32* %3, align 4
  %157 = load i32, i32* %2, align 4
  %158 = icmp sle i32 %156, %157
  br i1 %158, label %159, label %177

159:                                              ; preds = %155
  %160 = load i32, i32* %3, align 4
  %161 = sext i32 %160 to i64
  %162 = getelementptr inbounds [100 x %struct.student], [100 x %struct.student]* %1, i64 0, i64 %161
  %163 = getelementptr inbounds %struct.student, %struct.student* %162, i32 0, i32 6
  %164 = load i32, i32* %163, align 4
  %165 = load i32, i32* %5, align 4
  %166 = sext i32 %165 to i64
  %167 = getelementptr inbounds [100 x %struct.student], [100 x %struct.student]* %1, i64 0, i64 %166
  %168 = getelementptr inbounds %struct.student, %struct.student* %167, i32 0, i32 6
  %169 = load i32, i32* %168, align 4
  %170 = icmp sgt i32 %164, %169
  br i1 %170, label %171, label %173

171:                                              ; preds = %159
  %172 = load i32, i32* %3, align 4
  store i32 %172, i32* %5, align 4
  br label %173

173:                                              ; preds = %171, %159
  br label %174

174:                                              ; preds = %173
  %175 = load i32, i32* %3, align 4
  %176 = add nsw i32 %175, 1
  store i32 %176, i32* %3, align 4
  br label %155

177:                                              ; preds = %155
  %178 = load i32, i32* %5, align 4
  %179 = sext i32 %178 to i64
  %180 = getelementptr inbounds [100 x %struct.student], [100 x %struct.student]* %1, i64 0, i64 %179
  %181 = getelementptr inbounds %struct.student, %struct.student* %180, i32 0, i32 0
  %182 = getelementptr inbounds [20 x i8], [20 x i8]* %181, i64 0, i64 0
  %183 = call i32 (i8*, ...) @printf(i8* getelementptr inbounds ([4 x i8], [4 x i8]* @.str.2, i64 0, i64 0), i8* %182)
  %184 = load i32, i32* %5, align 4
  %185 = sext i32 %184 to i64
  %186 = getelementptr inbounds [100 x %struct.student], [100 x %struct.student]* %1, i64 0, i64 %185
  %187 = getelementptr inbounds %struct.student, %struct.student* %186, i32 0, i32 6
  %188 = load i32, i32* %187, align 4
  %189 = call i32 (i8*, ...) @printf(i8* getelementptr inbounds ([4 x i8], [4 x i8]* @.str.3, i64 0, i64 0), i32 %188)
  store i32 0, i32* %4, align 4
  store i32 0, i32* %3, align 4
  br label %190

190:                                              ; preds = %202, %177
  %191 = load i32, i32* %3, align 4
  %192 = load i32, i32* %2, align 4
  %193 = icmp slt i32 %191, %192
  br i1 %193, label %194, label %205

194:                                              ; preds = %190
  %195 = load i32, i32* %3, align 4
  %196 = sext i32 %195 to i64
  %197 = getelementptr inbounds [100 x %struct.student], [100 x %struct.student]* %1, i64 0, i64 %196
  %198 = getelementptr inbounds %struct.student, %struct.student* %197, i32 0, i32 6
  %199 = load i32, i32* %198, align 4
  %200 = load i32, i32* %4, align 4
  %201 = add nsw i32 %200, %199
  store i32 %201, i32* %4, align 4
  br label %202

202:                                              ; preds = %194
  %203 = load i32, i32* %3, align 4
  %204 = add nsw i32 %203, 1
  store i32 %204, i32* %3, align 4
  br label %190

205:                                              ; preds = %190
  %206 = load i32, i32* %4, align 4
  %207 = call i32 (i8*, ...) @printf(i8* getelementptr inbounds ([3 x i8], [3 x i8]* @.str, i64 0, i64 0), i32 %206)
  ret void
}